Certificate:
    Data:
        Version: 3 (0x2)
        Serial Number: 4096 (0x1000)
        Signature Algorithm: ecdsa-with-SHA384
        Issuer: C=US, ST=WA, L=Seattle, O=Sea, OU=Sea Root CA, CN=Sea Root Certificate Authority/emailAddress=grilledcheese@yummyinmytummy.us
        Validity
            Not Before: Mar 17 13:13:36 2019 GMT
            Not After : Jan 23 13:13:36 2029 GMT
        Subject: C=US, ST=WA, O=Sea, OU=Sea Intermediary CA, CN=Sea Intermediary CA/emailAddress=grilledcheese@yummyinmytummy.us
        Subject Public Key Info:
            Public Key Algorithm: id-ecPublicKey
                Public-Key: (384 bit)
                pub:
                    04:77:cb:bf:45:a2:e3:51:ec:c5:b3:52:49:99:a4:
                    f1:34:37:7d:d6:d7:51:a4:f7:c7:67:ac:e9:66:5c:
                    c5:ed:33:c5:bc:b8:3c:35:91:1a:9a:b7:b5:b1:81:
                    8a:77:79:08:f8:36:5c:db:78:d2:d5:0a:a1:4c:33:
                    62:0c:0b:c1:43:cc:58:57:b9:ab:82:53:ff:96:27:
                    7b:77:0a:00:f6:17:e6:f8:d2:2f:77:50:fb:e1:8a:
                    39:a1:a2:5c:09:d0:b1
                ASN1 OID: secp384r1
                NIST CURVE: P-384
        X509v3 extensions:
            X509v3 Subject Key Identifier: 
                73:F7:1A:FE:2D:D9:F6:61:EB:70:F6:24:6A:33:9E:D7:E6:58:2E:E3
            X509v3 Authority Key Identifier: 
                keyid:C8:64:EF:60:5D:6E:B7:A7:61:24:2F:CC:7E:6A:06:1A:55:4C:18:69

            X509v3 Basic Constraints: critical
                CA:TRUE, pathlen:0
            X509v3 Key Usage: critical
                Digital Signature, Certificate Sign, CRL Sign
            X509v3 CRL Distribution Points: 

                Full Name:
                  URI:http://crl.grilledcheese.us/whomovedmycheese.crl

            Authority Information Access: 
                CA Issuers - URI:http://ocsp.grilledcheese.us/cheddarcheeseroot.crt
                OCSP - URI:http://ocsp.grilledcheese.us/

    Signature Algorithm: ecdsa-with-SHA384
         30:65:02:30:21:10:01:4c:9d:73:0f:db:13:f0:9a:47:8f:53:
         87:b7:3d:0a:72:d4:6a:2c:1c:7d:ab:61:79:91:60:9a:a0:c8:
         b0:1e:2c:f8:f8:59:24:71:dd:1f:ca:0b:90:15:0f:e8:02:31:
         00:8c:13:8a:a6:cb:a7:0d:5b:ba:3c:a6:e9:cd:3d:c3:40:3c:
         69:8d:b0:d9:88:4d:a2:ce:19:5b:fe:c0:5a:ad:f6:3c:82:70:
         42:d1:5a:c3:4e:b8:05:61:3b:74:e2:7d:57
-----BEGIN CERTIFICATE-----
MIIDlDCCAxqgAwIBAgICEAAwCgYIKoZIzj0EAwMwgakxCzAJBgNVBAYTAlVTMQsw
CQYDVQQIDAJXQTEQMA4GA1UEBwwHU2VhdHRsZTEMMAoGA1UECgwDU2VhMRQwEgYD
VQQLDAtTZWEgUm9vdCBDQTEnMCUGA1UEAwweU2VhIFJvb3QgQ2VydGlmaWNhdGUg
QXV0aG9yaXR5MS4wLAYJKoZIhvcNAQkBFh9ncmlsbGVkY2hlZXNlQHl1bW15aW5t
eXR1bW15LnVzMB4XDTE5MDMxNzEzMTMzNloXDTI5MDEyMzEzMTMzNlowgZQxCzAJ
BgNVBAYTAlVTMQswCQYDVQQIDAJXQTEMMAoGA1UECgwDU2VhMRwwGgYDVQQLDBNT
ZWEgSW50ZXJtZWRpYXJ5IENBMRwwGgYDVQQDDBNTZWEgSW50ZXJtZWRpYXJ5IENB
MS4wLAYJKoZIhvcNAQkBFh9ncmlsbGVkY2hlZXNlQHl1bW15aW5teXR1bW15LnVz
MHYwEAYHKoZIzj0CAQYFK4EEACIDYgAEd8u/RaLjUezFs1JJmaTxNDd91tdRpPfH
Z6zpZlzF7TPFvLg8NZEamre1sYGKd3kI+DZc23jS1QqhTDNiDAvBQ8xYV7mrglP/
lid7dwoA9hfm+NIvd1D74Yo5oaJcCdCxo4IBJjCCASIwHQYDVR0OBBYEFHP3Gv4t
2fZh63D2JGozntfmWC7jMB8GA1UdIwQYMBaAFMhk72BdbrenYSQvzH5qBhpVTBhp
MBIGA1UdEwEB/wQIMAYBAf8CAQAwDgYDVR0PAQH/BAQDAgGGMEEGA1UdHwQ6MDgw
NqA0oDKGMGh0dHA6Ly9jcmwuZ3JpbGxlZGNoZWVzZS51cy93aG9tb3ZlZG15Y2hl
ZXNlLmNybDB5BggrBgEFBQcBAQRtMGswPgYIKwYBBQUHMAKGMmh0dHA6Ly9vY3Nw
LmdyaWxsZWRjaGVlc2UudXMvY2hlZGRhcmNoZWVzZXJvb3QuY3J0MCkGCCsGAQUF
BzABhh1odHRwOi8vb2NzcC5ncmlsbGVkY2hlZXNlLnVzLzAKBggqhkjOPQQDAwNo
ADBlAjAhEAFMnXMP2xPwmkePU4e3PQpy1GosHH2rYXmRYJqgyLAeLPj4WSRx3R/K
C5AVD+gCMQCME4qmy6cNW7o8punNPcNAPGmNsNmITaLOGVv+wFqt9jyCcELRWsNO
uAVhO3TifVc=
-----END CERTIFICATE-----
